target datalayout = "e-m:e-p270:32:32-p271:32:32-p272:64:64-i64:64-i128:128-f80:128-n8:16:32:64-S128"
target triple = "x86_64-pc-linux-gnu"

%struct.grpc_arg_pointer_vtable = type { ptr, ptr, ptr }
%"class.grpc_core::ChannelArgs::Pointer" = type { ptr, ptr }
%"class.grpc_core::ChannelArgs" = type { %"class.grpc_core::AVL" }
%"class.grpc_core::AVL" = type { %"class.grpc_core::RefCountedPtr" }
%"class.grpc_core::RefCountedPtr" = type { ptr }
%"class.std::basic_string_view" = type { i64, ptr }
%"class.grpc_core::ChannelArgs::Value" = type { %"class.grpc_core::ChannelArgs::Pointer" }

@_ZN9grpc_core11ChannelArgs5Value11int_vtable_E = constant %struct.grpc_arg_pointer_vtable { ptr @"_ZN9grpc_core11ChannelArgs5Value3$_08__invokeEPv", ptr @"_ZN9grpc_core11ChannelArgs5Value3$_18__invokeEPv", ptr @"_ZN9grpc_core11ChannelArgs5Value3$_28__invokeEPvS3_" }, align 8
@_ZN9grpc_core11ChannelArgs7PointerC1EPvPK23grpc_arg_pointer_vtable = unnamed_addr alias void (ptr, ptr, ptr), ptr @_ZN9grpc_core11ChannelArgs7PointerC2EPvPK23grpc_arg_pointer_vtable

; Function Attrs: mustprogress nounwind uwtable
define linkonce_odr void @_ZN9grpc_core11ChannelArgs7PointerD2Ev(ptr noundef nonnull align 8 dereferenceable(16) %0) unnamed_addr #6 comdat align 2 personality ptr @__gxx_personality_v0 {
  %2 = alloca ptr, align 8
  store ptr %0, ptr %2, align 8, !tbaa !7
  %3 = load ptr, ptr %2, align 8
  %4 = getelementptr inbounds nuw %"class.grpc_core::ChannelArgs::Pointer", ptr %3, i32 0, i32 1
  %5 = load ptr, ptr %4, align 8, !tbaa !13
  %6 = getelementptr inbounds nuw %struct.grpc_arg_pointer_vtable, ptr %5, i32 0, i32 1
  %7 = load ptr, ptr %6, align 8, !tbaa !47
  %8 = getelementptr inbounds nuw %"class.grpc_core::ChannelArgs::Pointer", ptr %3, i32 0, i32 0
  %9 = load ptr, ptr %8, align 8, !tbaa !11
  invoke void %7(ptr noundef %9)
          to label %10 unwind label %11

10:                                               ; preds = %1
  ret void

11:                                               ; preds = %1
  %12 = landingpad { ptr, i32 }
          catch ptr null
  %13 = extractvalue { ptr, i32 } %12, 0
  call void @__clang_call_terminate(ptr %13) #22
  unreachable
}

; Function Attrs: inlinehint mustprogress nounwind uwtable
define linkonce_odr void @_ZN9grpc_core11ChannelArgs5ValueD2Ev(ptr noundef nonnull align 8 dereferenceable(16) %0) unnamed_addr #8 comdat align 2 {
  %2 = alloca ptr, align 8
  store ptr %0, ptr %2, align 8, !tbaa !29
  %3 = load ptr, ptr %2, align 8
  %4 = getelementptr inbounds nuw %"class.grpc_core::ChannelArgs::Value", ptr %3, i32 0, i32 0
  call void @_ZN9grpc_core11ChannelArgs7PointerD2Ev(ptr noundef nonnull align 8 dereferenceable(16) %4) #3
  ret void
}

; Function Attrs: mustprogress uwtable
define linkonce_odr void @_ZN9grpc_core11ChannelArgs5ValueC2Ei(ptr noundef nonnull align 8 dereferenceable(16) %0, i32 noundef %1) unnamed_addr #5 comdat align 2 {
  %3 = alloca ptr, align 8
  %4 = alloca i32, align 4
  store ptr %0, ptr %3, align 8, !tbaa !29
  store i32 %1, ptr %4, align 4, !tbaa !31
  %5 = load ptr, ptr %3, align 8
  %6 = getelementptr inbounds nuw %"class.grpc_core::ChannelArgs::Value", ptr %5, i32 0, i32 0
  %7 = load i32, ptr %4, align 4, !tbaa !31
  %8 = sext i32 %7 to i64
  %9 = inttoptr i64 %8 to ptr
  call void @_ZN9grpc_core11ChannelArgs7PointerC1EPvPK23grpc_arg_pointer_vtable(ptr noundef nonnull align 8 dereferenceable(16) %6, ptr noundef %9, ptr noundef @_ZN9grpc_core11ChannelArgs5Value11int_vtable_E)
  ret void
}

; Function Attrs: mustprogress uwtable
define void @_ZNK9grpc_core11ChannelArgs3SetESt17basic_string_viewIcSt11char_traitsIcEEi(ptr dead_on_unwind noalias writable sret(%"class.grpc_core::ChannelArgs") align 8 %0, ptr noundef nonnull align 8 dereferenceable(8) %1, i64 %2, ptr %3, i32 noundef %4) #5 align 2 personality ptr @__gxx_personality_v0 {
  %6 = alloca ptr, align 8
  %7 = alloca %"class.std::basic_string_view", align 8
  %8 = alloca ptr, align 8
  %9 = alloca i32, align 4
  %10 = alloca %"class.std::basic_string_view", align 8
  %11 = alloca %"class.grpc_core::ChannelArgs::Value", align 8
  %12 = alloca ptr, align 8
  %13 = alloca i32, align 4
  store ptr %0, ptr %6, align 8
  %14 = getelementptr inbounds nuw { i64, ptr }, ptr %7, i32 0, i32 0
  store i64 %2, ptr %14, align 8
  %15 = getelementptr inbounds nuw { i64, ptr }, ptr %7, i32 0, i32 1
  store ptr %3, ptr %15, align 8
  store ptr %1, ptr %8, align 8, !tbaa !16
  store i32 %4, ptr %9, align 4, !tbaa !31
  %16 = load ptr, ptr %8, align 8
  call void @llvm.memcpy.p0.p0.i64(ptr align 8 %10, ptr align 8 %7, i64 16, i1 false), !tbaa.struct !22
  %17 = load i32, ptr %9, align 4, !tbaa !31
  call void @_ZN9grpc_core11ChannelArgs5ValueC2Ei(ptr noundef nonnull align 8 dereferenceable(16) %11, i32 noundef %17)
  %18 = getelementptr inbounds nuw { i64, ptr }, ptr %10, i32 0, i32 0
  %19 = load i64, ptr %18, align 8
  %20 = getelementptr inbounds nuw { i64, ptr }, ptr %10, i32 0, i32 1
  %21 = load ptr, ptr %20, align 8
  invoke void @_ZNK9grpc_core11ChannelArgs3SetESt17basic_string_viewIcSt11char_traitsIcEENS0_5ValueE(ptr dead_on_unwind writable sret(%"class.grpc_core::ChannelArgs") align 8 %0, ptr noundef nonnull align 8 dereferenceable(8) %16, i64 %19, ptr %21, ptr noundef %11)
          to label %22 unwind label %23

22:                                               ; preds = %5
  call void @_ZN9grpc_core11ChannelArgs5ValueD2Ev(ptr noundef nonnull align 8 dereferenceable(16) %11) #3
  ret void

23:                                               ; preds = %5
  %24 = landingpad { ptr, i32 }
          cleanup
  %25 = extractvalue { ptr, i32 } %24, 0
  store ptr %25, ptr %12, align 8
  %26 = extractvalue { ptr, i32 } %24, 1
  store i32 %26, ptr %13, align 4
  call void @_ZN9grpc_core11ChannelArgs5ValueD2Ev(ptr noundef nonnull align 8 dereferenceable(16) %11) #3
  br label %27

27:                                               ; preds = %23
  %28 = load ptr, ptr %12, align 8
  %29 = load i32, ptr %13, align 4
  %30 = insertvalue { ptr, i32 } poison, ptr %28, 0
  %31 = insertvalue { ptr, i32 } %30, i32 %29, 1
  resume { ptr, i32 } %31
}