; Function Attrs: mustprogress uwtable
define void @_ZNK9grpc_core11ChannelArgs3SetESt17basic_string_viewIcSt11char_traitsIcEEi(ptr dead_on_unwind noalias writable sret(%"class.grpc_core::ChannelArgs") align 8 %0, ptr noundef nonnull align 8 dereferenceable(8) %1, i64 %2, ptr %3, i32 noundef %4) local_unnamed_addr #9 align 2 personality ptr @__gxx_personality_v0 {
  %6 = alloca %"class.grpc_core::ChannelArgs::Value", align 8
  %7 = sext i32 %4 to i64
  %8 = inttoptr i64 %7 to ptr
  call void @_ZN9grpc_core11ChannelArgs7PointerC1EPvPK23grpc_arg_pointer_vtable(ptr noundef nonnull align 8 dereferenceable(16) %6, ptr noundef %8, ptr noundef nonnull @_ZN9grpc_core11ChannelArgs5Value11int_vtable_E)
  invoke void @_ZNK9grpc_core11ChannelArgs3SetESt17basic_string_viewIcSt11char_traitsIcEENS0_5ValueE(ptr dead_on_unwind writable sret(%"class.grpc_core::ChannelArgs") align 8 %0, ptr noundef nonnull align 8 dereferenceable(8) %1, i64 %2, ptr %3, ptr noundef nonnull %6)
          to label %9 unwind label %18

9:                                                ; preds = %5
  %10 = getelementptr inbounds nuw i8, ptr %6, i64 8
  %11 = load ptr, ptr %10, align 8, !tbaa !18
  %12 = getelementptr inbounds nuw i8, ptr %11, i64 8
  %13 = load ptr, ptr %12, align 8, !tbaa !45
  %14 = load ptr, ptr %6, align 8, !tbaa !14
  invoke void %13(ptr noundef %14)
          to label %_ZN9grpc_core11ChannelArgs5ValueD2Ev.exit unwind label %15

15:                                               ; preds = %9
  %16 = landingpad { ptr, i32 }
          catch ptr null
  %17 = extractvalue { ptr, i32 } %16, 0
  call void @__clang_call_terminate(ptr %17) #38
  unreachable

_ZN9grpc_core11ChannelArgs5ValueD2Ev.exit:        ; preds = %9
  ret void

18:                                               ; preds = %5
  %19 = landingpad { ptr, i32 }
          cleanup
  %20 = getelementptr inbounds nuw i8, ptr %6, i64 8
  %21 = load ptr, ptr %20, align 8, !tbaa !18
  %22 = getelementptr inbounds nuw i8, ptr %21, i64 8
  %23 = load ptr, ptr %22, align 8, !tbaa !45
  %24 = load ptr, ptr %6, align 8, !tbaa !14
  invoke void %23(ptr noundef %24)
          to label %_ZN9grpc_core11ChannelArgs5ValueD2Ev.exit5 unwind label %25

25:                                               ; preds = %18
  %26 = landingpad { ptr, i32 }
          catch ptr null
  %27 = extractvalue { ptr, i32 } %26, 0
  call void @__clang_call_terminate(ptr %27) #38
  unreachable

_ZN9grpc_core11ChannelArgs5ValueD2Ev.exit5:       ; preds = %18
  resume { ptr, i32 } %19
}